(dp1
S'output'
p2
S'<class \'gluon.contrib.pymysql.err.IntegrityError\'> (1062, u"Duplicate entry \'First Semester\' for key 2")'
p3
sS'layer'
p4
S'/opt/web-apps/web2py/applications/welcome/models/db.py'
p5
sS'code'
p6
S'# -*- coding: utf-8 -*-\n\n#########################################################################\n## This scaffolding model makes your app work on Google App Engine too\n## File is released under public domain and you can use without limitations\n#########################################################################\n\n## if SSL/HTTPS is properly configured and you want all HTTP requests to\n## be redirected to HTTPS, uncomment the line below:\n# request.requires_https()\n\nif not request.env.web2py_runtime_gae:\n    ## if NOT running on Google App Engine use SQLite or other DB\n    db = DAL(\'mysql://root@localhost/cpfecys\',pool_size=1,check_reserved=[\'all\'])\nelse:\n    ## connect to Google BigTable (optional \'google:datastore://namespace\')\n    db = DAL(\'google:datastore\')\n    ## store sessions and tickets there\n    session.connect(request, response, db=db)\n    ## or store session in Memcache, Redis, etc.\n    ## from gluon.contrib.memdb import MEMDB\n    ## from google.appengine.api.memcache import Client\n    ## session.connect(request, response, db = MEMDB(Client()))\n\n#Some weird web2py bug fixed here to avoid overwritting code in core\nfrom gluon.dal import BaseAdapter\ndef ADD(self, first, second):\n    if self.is_numerical_type(first.type) or isinstance(first, Field):\n        return \'(%s + %s)\' % (self.expand(first),\n                              self.expand(second, first.type))\n    else:\n        return self.CONCAT(first, second)\nBaseAdapter.ADD = ADD\n\n## by default give a view/generic.extension to all actions from localhost\n## none otherwise. a pattern can be \'controller/function.extension\'\nresponse.generic_patterns = [\'*\'] if request.is_local else []\n## (optional) optimize handling of static files\n# response.optimize_css = \'concat,minify,inline\'\n# response.optimize_js = \'concat,minify,inline\'\n\n#########################################################################\n## Here is sample code if you need for\n## - email capabilities\n## - authentication (registration, login, logout, ... )\n## - authorization (role based authorization)\n## - services (xml, csv, json, xmlrpc, jsonrpc, amf, rss)\n## - old style crud actions\n## (more options discussed in gluon/tools.py)\n#########################################################################\n\nfrom gluon.tools import Auth, Crud, Service, PluginManager, prettydate\nauth = Auth(db)\n\n# NOTE: length=255 is needed because a bug in mysql\n# as describede here: http://goo.gl/NBG5JM\nauth.settings.extra_fields[\'auth_user\']= [\n                  Field(\'phone\', \'string\', length=16, notnull=False),\n                  Field(\'working\', \'boolean\', notnull=False),\n                  Field(\'work_address\', \'string\',length=255, notnull=False),\n                  Field(\'uv_token\', \'string\', length=64, notnull=False, \\\n                    writable=False, readable=False),\n                  Field(\'data_updated\', \'boolean\', notnull=False),]\n\ncrud, service, plugins = Crud(db), Service(), PluginManager()\n\n## create all tables needed by auth if not custom tables\nauth.define_tables(username=True, signature=False, migrate=True)\n\n## Change the display format for a user within this system.\n## Carnet is our best chance for identifying users.\n## db.auth_user._format = \'%(carnet)s\'\n\n## configure email\nmail = auth.settings.mailer\nmail.settings.server = \'logging\' or \'smtp.gmail.com:587\'\nmail.settings.sender = \'you@gmail.com\'\nmail.settings.login = \'username:password\'\n\n## configure auth policy\nauth.settings.registration_requires_verification = False\nauth.settings.registration_requires_approval = False\nauth.settings.reset_password_requires_verification = True\n## disable registration\nauth.settings.actions_disabled.append(\'register\')\n\n## if you need to use OpenID, Facebook, MySpace, Twitter, Linkedin, etc.\n## register with janrain.com, write your domain:api_key in private/janrain.key\nfrom gluon.contrib.login_methods.rpx_account import use_janrain\nuse_janrain(auth, filename=\'private/janrain.key\')\n\n#########################################################################\n## Define your tables below (or better in another model file) for example\n##\n## >>> db.define_table(\'mytable\',Field(\'myfield\',\'string\'))\n##\n## Fields can be \'string\',\'text\',\'password\',\'integer\',\'double\',\'boolean\'\n##       \'date\',\'time\',\'datetime\',\'blob\',\'upload\', \'reference TABLENAME\'\n## There is an implicit \'id integer autoincrement\' field\n## Consult manual for more options, validators, etc.\n##\n## More API examples for controllers:\n##\n## >>> db.mytable.insert(myfield=\'value\')\n## >>> rows=db(db.mytable.myfield==\'value\').select(db.mytable.ALL)\n## >>> for row in rows: print row.id, row.myfield\n#########################################################################\n\n# A project contains an description and name\ndb.define_table(\'area_level\',\n                Field(\'name\', \'string\', label = T(\'name\')),\n                Field(\'description\', \'text\', label = T(\'description\')),\n                format=\'%(name)s\')\n\ndb.define_table(\'project\',\n                Field (\'project_id\', \'string\', unique = True, length = 255, \\\n                    label = T(\'project_id\')),\n                Field (\'name\', \'string\', label = T(\'name\')),\n                Field (\'area_level\', \'reference area_level\', label = T(\'area_level\')),\n                Field (\'description\', \'text\', label = T(\'description\')),\n                Field (\'physical_location\', \'text\', \\\n                    label = T(\'physical_location\')),\n                format=\'%(name)s\')\n\ndb.define_table(\'period\',\n                Field (\'name\', \'string\', unique = True, length = 255, \\\n                    label = T(\'name\')),\n                format = \'%(name)s\')\n\ndb.define_table(\'period_year\',\n                Field(\'yearp\', \'integer\', label = T(\'yearp\')),\n                Field(\'period\', \'reference period\', label = T(\'period\')),\n                format = \'%(yearp)s - %(period)s\')\n\n# The relationship between a user and a subproject contains\n# the history of the final practice,\n# it has the starting cycle and the ending cycle\n# it also is the central key for all operations with interesting data\ndb.define_table(\'user_project\',\n                Field(\'assigned_user\', \'reference auth_user\', \\\n                    label = T(\'assigned_user\')),\n                Field(\'project\', \'reference project\', label = T(\'project\')),\n                Field(\'period\', \'reference period_year\', label = T(\'period\')),\n                Field(\'pro_bono\', \'boolean\', length=255, notnull=False, \\\n                    label = T(\'pro_bono\')),\n                Field (\'periods\', \'integer\', notnull=False, \\\n                    label = T(\'periods\')))\n\nfirst_period_name = \'First Semester\'\nsecond_period_name = \'Second Semester\'\n\n# This are the tables that store important links and uploaded\n# files by admin.\ndb.define_table(\'link\',\n                Field(\'url\', \'text\', notnull=True, label = T(\'url/URL\')),\n                Field(\'blank\', \'boolean\', label = T(\'blank\')),\n                Field(\'url_text\', \'text\', notnull=True, \\\n                    label = T(\'url_text\')),\n                Field(\'visible\', \'boolean\', notnull=True, \\\n                    label = T(\'visible\')),\n                Field(\'is_public\', \'boolean\', notnull=False, \n                    label = T(\'is_public\')),\n                format=\'%(url_text)s\')\n\n#Frontend notification\ndb.define_table(\'front_notification\',\n                Field(\'name\', \'string\', notnull=True, label = T(\'name\')),\n                Field(\'content_text\', \'text\', notnull=False, \\\n                    label = T(\'content_text\')),\n                Field(\'url\', \'string\', notnull=False, label = T(\'url/URL\')),\n                Field(\'visible\', \'boolean\', notnull=False, label = T(\'visible\')),\n                Field(\'is_public\', \'boolean\', notnull=False, \\\n                    label = T(\'is_public\')),\n                Field(\'file_data\', \'upload\', default=\'\', notnull=False, \\\n                    label = T(\'file_data\')),\n                Field(\'promoted\', \'boolean\', notnull=False, \\\n                    label = T(\'promoted\')),\n                format=\'%(name)s\'\n                )\n\n#Published files entity\ndb.define_table(\'uploaded_file\',\n                Field(\'name\', \'string\', notnull=True, label = T(\'name\')),\n                Field(\'visible\', \'boolean\', label = T(\'visible\')),\n                Field(\'file_data\', \'upload\', default=\'\', \\\n                    label = T(\'file_data\')),\n                Field(\'is_public\', \'boolean\', notnull=False, \\\n                    label = T(\'is_public\')),\n                format=\'%(name)s\')\n\n#User gruops relationships with files, notifications, links\ndb.define_table(\'file_access\',\n                Field (\'user_role\', \'reference auth_group\', \\\n                    label = T(\'user_role\')),\n                Field (\'uploaded_file\', \'reference uploaded_file\', \\\n                    label = T(\'uploaded_file\')),\n                )\n\ndb.define_table(\'link_access\',\n                Field (\'user_role\', \'reference auth_group\', \\\n                    label = T(\'user_role\')),\n                Field (\'link\', \'reference link\', \\\n                    label = T(\'link\')),\n                )\n\ndb.define_table(\'notification_access\',\n                Field (\'user_role\', \'reference auth_group\', \\\n                    label = T(\'user_role\')),\n                Field (\'front_notification\', \'reference front_notification\',\\\n                    label = T(\'front_notification\')),\n                )\n\n#Reports and Activities structure\ndb.define_table(\'report_restriction\',\n                Field(\'name\', \'string\', notnull=False, \\\n                    label = T(\'name\')),\n                Field(\'start_date\', \'date\', notnull=False, \\\n                    label = T(\'start_date\')),\n                Field(\'end_date\', \'date\', notnull=False, \\\n                    label = T(\'end_date\')),\n                Field(\'is_enabled\', \'boolean\', notnull=False, \\\n                    label = T(\'is_enabled\')),\n                )\n\ndb.define_table(\'report_status\',\n                Field(\'name\', \'string\', notnull=True, label = T(\'name\')),\n                Field(\'description\', \'string\', notnull=True), \\\n                label = T(\'description\'))\n\ndb.define_table(\'report\',\n                Field(\'created\', \'date\', \\\n                label = T(\'created\')),\n                Field(\'assignation\', \'reference user_project\', \\\n                label = T(\'assignation\')),\n                Field(\'report_restriction\', \'reference report_restriction\', \\\n                label = T(\'report_restriction\')),\n                Field(\'score\', \'integer\', \\\n                label = T(\'score\')),\n                Field(\'status\', \'reference report_status\', notnull=True, \\\n                label = T(\'status\')),\n                )\n\ndb.define_table(\'log_type\',\n                Field(\'name\', \'string\', notnull=True, label = T(\'name\')),\n                format=\'%(entry_date)s\'\n                )\n\ndb.define_table(\'log_entry\',\n                Field(\'log_type\', \'reference log_type\', \\\n                    label = T(\'Tlog_type\')),\n                Field(\'entry_date\', \'date\', notnull=True, \\\n                    label = T(\'entry_date\')),\n                Field(\'description\', \'text\', notnull=True, \\\n                    label = T(\'description\')),\n                Field(\'report\', \'reference report\', \\\n                    label = T(\'report\')),\n                format=\'%(entry_date)s\'\n                )\n#Project item requirements structure\ndb.define_table(\'item_type\',\n                Field(\'name\', \'string\', notnull=True, label = T(\'name\')),\n                format=\'%(name)s\'\n                )\n\ndb.define_table(\'item_restriction\',\n                Field(\'name\', \'string\', notnull=False, label = T(\'name\')),\n                Field(\'is_enabled\', \'boolean\', notnull=False, \\\n                    label = T(\'is_enabled\')),\n                Field(\'permanent\', \'boolean\', notnull=False, \\\n                    label = T(\'permanent\')),\n                Field(\'teacher_only\', \'boolean\', notnull=True, \\\n                    label = T(\'teacher_only\')),\n                Field(\'admin_only\', \'boolean\', notnull=True, \\\n                    label = T(\'admin_only\')),\n                Field(\'item_type\', \'reference item_type\', \\\n                    label = T(\'item_type\')),\n                Field(\'period\', \'reference period_year\', \\\n                    label = T(\'period\')),\n                format=\'%(name)s\'\n                )\n\ndb.define_table(\'item_restriction_area\', \n                Field(\'area_level\', \'reference area_level\', \\\n                    label = T(\'area_level\')),\n                Field(\'item_restriction\', \'reference item_restriction\', \\\n                    label = T(\'item_restriction\')),\n                Field(\'is_enabled\', \'boolean\', notnull=False, \\\n                    label = T(\'is_enabled\')),\n                )\n\ndb.define_table(\'item_restriction_exception\', \n                Field(\'project\', \'reference project\', \\\n                    label = T(\'project\')),\n                Field(\'item_restriction\', \'reference item_restriction\', \\\n                    label = T(\'item_restriction\')),\n                )\n\ndb.define_table(\'item\',\n                Field(\'is_active\', \'boolean\', notnull=False, \\\n                    label = T(\'is_active\')),\n                Field(\'description\', \'text\', notnull=False, \\\n                    label = T(\'description\')),\n                Field(\'uploaded_file\', \'upload\', default=\'\', notnull=False, \\\n                    label = T(\'uploaded_file\')),\n                Field(\'done_activity\', \'boolean\', notnull=False, \\\n                    label = T(\'done_activity\')),\n                Field(\'created\', \'reference period_year\', \\\n                    label = T(\'created\')),\n                Field(\'item_restriction\', \'reference item_restriction\', \\\n                    label = T(\'item_restriction\')),\n                Field(\'assignation\', \'reference user_project\', \\\n                    label = T(\'assignation\')),\n                format=\'%(name)s\'\n                )\n\n#User updated data validation\nif auth.user != None:\n    groups = db((db.auth_membership.user_id==auth.user.id)& \\\n                    (db.auth_group.role==\'Student\')& \\\n                    (db.auth_group.id==db.auth_membership.group_id)). \\\n                    select().first()\n    if groups != None:\n        path  = request.env.path_info\n        update_url = \'/cpfecys/student/update_data\'\n        logout_url = \'/default/user/logout\'\n        if not db(db.auth_user.id==auth.user.id).select().first().data_updated:\n                if path != update_url and not logout_url in path:\n                    redirect(URL(\'student\',\'update_data\'))\n\n# User Roles\n## Super-Administrator:\nsetup = db.auth_user(db.auth_user.username == \'admin\')\nif setup is None:\n    ## Report Status Types\n    db.report_status.insert(name="Draft", description="")\n    db.report_status.insert(name="Grading", description="")\n    db.report_status.insert(name="Recheck", description="")\n    db.report_status.insert(name="Acceptance", description="")\n    #Default item types\n    db.item_type.insert(name=\'File\')\n    db.item_type.insert(name=\'Activity\')\n\n    #Default log types\n    db.log_type.insert(name=\'Activity\')\n    db.log_type.insert(name=\'Anomaly\')\n\n    semester1 = db.period.insert(name = first_period_name)\n    semester2 = db.period.insert(name = second_period_name)\n    ## Final Practice Areas of DTT\n    lvl_1 = db.area_level.insert(name = "DTT Tutor Acad\xc3\xa9mico", description = "")\n    lvl_2 = db.area_level.insert(name = "DTT Tutor de Comunicaci\xc3\xb3n", description = "")\n    lvl_3 = db.area_level.insert(name = "DTT Tutor de Desarrollo", description = "")\n    lvl_4 = db.area_level.insert(name = "DTT Tutor de Innovaci\xc3\xb3n", description = "")\n    lvl_5 = db.area_level.insert(name = "DTT Tutor de Investigaci\xc3\xb3n", description = "")\n    lvl_6 = db.area_level.insert(name = "DTT Tutor de Infraestructura", description = "")\n    ## Creation of standard \'Projects\'\n    db.project.insert(project_id = \'0283A\', area_level = lvl_1, name = \'An\xc3\xa1lisis y Dise\xc3\xb1o de Sistemas 1 (Secci\xc3\xb3n A)\', description = \'\', physical_location = \'\')\n    db.project.insert(project_id = \'0785A\', area_level = lvl_1, name = \'An\xc3\xa1lisis y Dise\xc3\xb1o de Sistemas 2 (Secci\xc3\xb3n A)\', description = \'\', physical_location = \'\')\n    db.project.insert(project_id = \'0785B\', area_level = lvl_1, name = \'An\xc3\xa1lisis y Dise\xc3\xb1o de Sistemas 2 (Secci\xc3\xb3n B)\', description = \'\', physical_location = \'\')\n    db.project.insert(project_id = \'0778A\', area_level = lvl_1, name = \'Arquitectura de Computadoras y Ensambladores 1 (Secci\xc3\xb3n A)\', description = \'\', physical_location = \'\')\n    db.project.insert(project_id = \'0778B\', area_level = lvl_1, name = \'Arquitectura de Computadoras y Ensambladores 1 (Secci\xc3\xb3n B)\', description = \'\', physical_location = \'\')\n    db.project.insert(project_id = \'0779A\', area_level = lvl_1, name = \'Arquitectura de Computadoras y Ensambladores 2 (Secci\xc3\xb3n A)\', description = \'\', physical_location = \'\')\n    db.project.insert(project_id = \'0774A\', area_level = lvl_1, name = \'Bases de Datos 1 (Secci\xc3\xb3n A)\', description = \'\', physical_location = \'\')\n    db.project.insert(project_id = \'0774B\', area_level = lvl_1, name = \'Bases de Datos 1 (Secci\xc3\xb3n B)\', description = \'\', physical_location = \'\')\n    db.project.insert(project_id = \'0775A\', area_level = lvl_1, name = \'Bases de Datos 2 (Secci\xc3\xb3n A)\', description = \'\', physical_location = \'\')\n    db.project.insert(project_id = \'0775B\', area_level = lvl_1, name = \'Bases de Datos 2 (Secci\xc3\xb3n B)\', description = \'\', physical_location = \'\')\n    db.project.insert(project_id = \'0738A\', area_level = lvl_1, name = \'Bases de Datos Avanzadas (Secci\xc3\xb3n A)\', description = \'\', physical_location = \'\')\n    db.project.insert(project_id = \'0014A+\', area_level = lvl_1, name = \'Econom\xc3\xada (Secci\xc3\xb3n A+)\', description = \'\', physical_location = \'\')\n    db.project.insert(project_id = \'0014A-\', area_level = lvl_1, name = \'Econom\xc3\xada (Secci\xc3\xb3n A-)\', description = \'\', physical_location = \'\')\n    db.project.insert(project_id = \'0790A\', area_level = lvl_1, name = \'Emprendedores de Negocios Inform\xc3\xa1ticos\t (Secci\xc3\xb3n A)\', description = \'\', physical_location = \'\')\n    db.project.insert(project_id = \'0772A\', area_level = lvl_1, name = \'Estructura de Datos (Secci\xc3\xb3n A)\', description = \'\', physical_location = \'\')\n    db.project.insert(project_id = \'0772B\', area_level = lvl_1, name = \'Estructura de Datos (Secci\xc3\xb3n B)\', description = \'\', physical_location = \'\')\n    db.project.insert(project_id = \'0786N\', area_level = lvl_1, name = \'Gerenciales 1 (Secci\xc3\xb3n N)\', description = \'\', physical_location = \'\')\n    db.project.insert(project_id = \'0786P\', area_level = lvl_1, name = \'Gerenciales 1 (Secci\xc3\xb3n P)\', description = \'\', physical_location = \'\')\n    db.project.insert(project_id = \'0787A\', area_level = lvl_1, name = \'Gerenciales 2 (Secci\xc3\xb3n A)\', description = \'\', physical_location = \'\')\n    db.project.insert(project_id = \'0972A\', area_level = lvl_1, name = \'Inteligencia Artificial 1 (Secci\xc3\xb3n A)\', description = \'\', physical_location = \'\')\n    db.project.insert(project_id = \'0972B\', area_level = lvl_1, name = \'Inteligencia Artificial 1 (Secci\xc3\xb3n B)\', description = \'\', physical_location = \'\')\n    db.project.insert(project_id = \'0770A\', area_level = lvl_1, name = \'Introducci\xc3\xb3n a la Programaci\xc3\xb3n y Computaci\xc3\xb3n 1 (Secci\xc3\xb3n A)\', description = \'\', physical_location = \'\')\n    db.project.insert(project_id = \'0770B\', area_level = lvl_1, name = \'Introducci\xc3\xb3n a la Programaci\xc3\xb3n y Computaci\xc3\xb3n 1 (Secci\xc3\xb3n B)\', description = \'\', physical_location = \'\')\n    db.project.insert(project_id = \'0770C\', area_level = lvl_1, name = \'Introducci\xc3\xb3n a la Programaci\xc3\xb3n y Computaci\xc3\xb3n 1 (Secci\xc3\xb3n C)\', description = \'\', physical_location = \'\')\n    db.project.insert(project_id = \'0770D\', area_level = lvl_1, name = \'Introducci\xc3\xb3n a la Programaci\xc3\xb3n y Computaci\xc3\xb3n 1 (Secci\xc3\xb3n D)\', description = \'\', physical_location = \'\')\n    db.project.insert(project_id = \'0770E\', area_level = lvl_1, name = \'Introducci\xc3\xb3n a la Programaci\xc3\xb3n y Computaci\xc3\xb3n 1 (Secci\xc3\xb3n E)\', description = \'\', physical_location = \'\')\n    db.project.insert(project_id = \'0771A\', area_level = lvl_1, name = \'Introducci\xc3\xb3n a la Programaci\xc3\xb3n y Computaci\xc3\xb3n 2 (Secci\xc3\xb3n A)\', description = \'\', physical_location = \'\')\n    db.project.insert(project_id = \'0771B\', area_level = lvl_1, name = \'Introducci\xc3\xb3n a la Programaci\xc3\xb3n y Computaci\xc3\xb3n 2 (Secci\xc3\xb3n B)\', description = \'\', physical_location = \'\')\n    db.project.insert(project_id = \'0771C\', area_level = lvl_1, name = \'Introducci\xc3\xb3n a la Programaci\xc3\xb3n y Computaci\xc3\xb3n 2 (Secci\xc3\xb3n C)\', description = \'\', physical_location = \'\')\n    db.project.insert(project_id = \'0771D\', area_level = lvl_1, name = \'Introducci\xc3\xb3n a la Programaci\xc3\xb3n y Computaci\xc3\xb3n 2 (Secci\xc3\xb3n D)\', description = \'\', physical_location = \'\')\n    db.project.insert(project_id = \'0771E\', area_level = lvl_1, name = \'Introducci\xc3\xb3n a la Programaci\xc3\xb3n y Computaci\xc3\xb3n 2 (Secci\xc3\xb3n E)\', description = \'\', physical_location = \'\')\n    db.project.insert(project_id = \'0796A+\', area_level = lvl_1, name = \'Lenguajes Formales y de Programaci\xc3\xb3n (Secci\xc3\xb3n A+)\', description = \'\', physical_location = \'\')\n    db.project.insert(project_id = \'0796A-\', area_level = lvl_1, name = \'Lenguajes Formales y de Programaci\xc3\xb3n (Secci\xc3\xb3n A-)\', description = \'\', physical_location = \'\')\n    db.project.insert(project_id = \'0796B+\', area_level = lvl_1, name = \'Lenguajes Formales y de Programaci\xc3\xb3n (Secci\xc3\xb3n B+)\', description = \'\', physical_location = \'\')\n    db.project.insert(project_id = \'0796B-\', area_level = lvl_1, name = \'Lenguajes Formales y de Programaci\xc3\xb3n (Secci\xc3\xb3n B-)\', description = \'\', physical_location = \'\')\n    db.project.insert(project_id = \'0795A+\', area_level = lvl_1, name = \'L\xc3\xb3gica de Sistemas (Secci\xc3\xb3n A+)\', description = \'\', physical_location = \'\')\n    db.project.insert(project_id = \'0795A-\', area_level = lvl_1, name = \'L\xc3\xb3gica de Sistemas (Secci\xc3\xb3n A-)\', description = \'\', physical_location = \'\')\n    db.project.insert(project_id = \'0773A+\', area_level = lvl_1, name = \'Manejo e Implementaci\xc3\xb3n de Archivos (Secci\xc3\xb3n A+)\', description = \'\', physical_location = \'\')\n    db.project.insert(project_id = \'0773A-\', area_level = lvl_1, name = \'Manejo e Implementaci\xc3\xb3n de Archivos (Secci\xc3\xb3n A-)\', description = \'\', physical_location = \'\')\n    db.project.insert(project_id = \'0729A\', area_level = lvl_1, name = \'Modelaci\xc3\xb3n y Simulaci\xc3\xb3n 1 (Secci\xc3\xb3n A)\', description = \'\', physical_location = \'\')\n    db.project.insert(project_id = \'0730A\', area_level = lvl_1, name = \'Modelaci\xc3\xb3n y Simulaci\xc3\xb3n 2 (Secci\xc3\xb3n A)\', description = \'\', physical_location = \'\')\n    db.project.insert(project_id = \'0964A\', area_level = lvl_1, name = \'Organizaci\xc3\xb3n Comptuacional (Secci\xc3\xb3n A)\', description = \'\', physical_location = \'\')\n    db.project.insert(project_id = \'0964B\', area_level = lvl_1, name = \'Organizaci\xc3\xb3n Comptuacional (Secci\xc3\xb3n B)\', description = \'\', physical_location = \'\')\n    db.project.insert(project_id = \'0777A\', area_level = lvl_1, name = \'Organizaci\xc3\xb3n Lenguajes y Compiladores 1 (Secci\xc3\xb3n A)\', description = \'\', physical_location = \'\')\n    db.project.insert(project_id = \'0777B\', area_level = lvl_1, name = \'Organizaci\xc3\xb3n Lenguajes y Compiladores 1 (Secci\xc3\xb3n B)\', description = \'\', physical_location = \'\')\n    db.project.insert(project_id = \'0777C\', area_level = lvl_1, name = \'Organizaci\xc3\xb3n Lenguajes y Compiladores 1 (Secci\xc3\xb3n C)\', description = \'\', physical_location = \'\')\n    db.project.insert(project_id = \'0777D\', area_level = lvl_1, name = \'Organizaci\xc3\xb3n Lenguajes y Compiladores 1 (Secci\xc3\xb3n D)\', description = \'\', physical_location = \'\')\n    db.project.insert(project_id = \'0781A+\', area_level = lvl_1, name = \'Organizaci\xc3\xb3n Lenguajes y Compiladores 2 (Secci\xc3\xb3n A+)\', description = \'\', physical_location = \'\')\n    db.project.insert(project_id = \'0781A-\', area_level = lvl_1, name = \'Organizaci\xc3\xb3n Lenguajes y Compiladores 2 (Secci\xc3\xb3n A+)\', description = \'\', physical_location = \'\')\n    db.project.insert(project_id = \'2025A\', area_level = lvl_1, name = \'Pr\xc3\xa1cticas Iniciales (Secci\xc3\xb3n A)\', description = \'\', physical_location = \'\')\n    db.project.insert(project_id = \'2036A\', area_level = lvl_1, name = \'Pr\xc3\xa1cticas Intermedias (Secci\xc3\xb3n A)\', description = \'\', physical_location = \'\')\n    db.project.insert(project_id = \'0667P\', area_level = lvl_1, name = \'Programaci\xc3\xb3n Comercial 1 (Secci\xc3\xb3n P)\', description = \'\', physical_location = \'\')\n    db.project.insert(project_id = \'0090A\', area_level = lvl_1, name = \'Programaci\xc3\xb3n de Computadoras 1 (090 Secci\xc3\xb3n A)\', description = \'\', physical_location = \'\')\n    db.project.insert(project_id = \'0092N\', area_level = lvl_1, name = \'Programaci\xc3\xb3n de Computadoras 2 (Secci\xc3\xb3n N)\', description = \'\', physical_location = \'\')\n    db.project.insert(project_id = \'0092P\', area_level = lvl_1, name = \'Programaci\xc3\xb3n de Computadoras 2 (Secci\xc3\xb3n P)\', description = \'\', physical_location = \'\')\n    db.project.insert(project_id = \'0092Q\', area_level = lvl_1, name = \'Programaci\xc3\xb3n de Computadoras 2 (Secci\xc3\xb3n Q)\', description = \'\', physical_location = \'\')\n    db.project.insert(project_id = \'0970A\', area_level = lvl_1, name = \'Redes de Computadoras 1 (Secci\xc3\xb3n A)\', description = \'\', physical_location = \'\')\n    db.project.insert(project_id = \'0975A\', area_level = lvl_1, name = \'Redes de Computadoras 2 (Secci\xc3\xb3n A)\', description = \'\', physical_location = \'\')\n    db.project.insert(project_id = \'0966A\', area_level = lvl_1, name = \'Seguridad y Auditoria de Redes (Secci\xc3\xb3n A)\', description = \'\', physical_location = \'\')\n    db.project.insert(project_id = \'0799A\', area_level = lvl_1, name = \'Seminario de Investigaci\xc3\xb3n (Secci\xc3\xb3n A)\', description = \'\', physical_location = \'\')\n    db.project.insert(project_id = \'0797A\', area_level = lvl_1, name = \'Seminario de Sistemas 1 (Secci\xc3\xb3n A)\', description = \'\', physical_location = \'\')\n    db.project.insert(project_id = \'0798A\', area_level = lvl_1, name = \'Seminario de Sistemas 2 (Secci\xc3\xb3n A)\', description = \'\', physical_location = \'\')\n    db.project.insert(project_id = \'0281A\', area_level = lvl_1, name = \'Sistemas Operativos 1 (Secci\xc3\xb3n A)\', description = \'\', physical_location = \'\')\n    db.project.insert(project_id = \'0285A\', area_level = lvl_1, name = \'Sistemas Operativos 2 (Secci\xc3\xb3n A)\', description = \'\', physical_location = \'\')\n    db.project.insert(project_id = \'0780A\', area_level = lvl_1, name = \'Software Avanzado (Secci\xc3\xb3n A)\', description = \'\', physical_location = \'\')\n    db.project.insert(project_id = \'0722A\', area_level = lvl_1, name = \'Teoria de Sistemas 1 (Secci\xc3\xb3n A)\', description = \'\', physical_location = \'\')\n    db.project.insert(project_id = \'0721A\', area_level = lvl_1, name = \'Teoria de Sistemas 2 (Secci\xc3\xb3n A)\', description = \'\', physical_location = \'\')\n    # Various Projects\n    db.project.insert(project_id = \'PV001\', area_level = lvl_6, name = \'COECYS\', description = \'Congreso de Estudiantes de Ingenier\xc3\xada en Ciencias y Sistemas\', physical_location = \'Oficina de Congresos Estudiantiles Ingenier\xc3\xada USAC, Edificio T-1, tercer nivel\')\n    db.project.insert(project_id = \'PV002\', area_level = lvl_1, name = \'DSI\', description = \'Departamento de Soporte Inform\xc3\xa1tico\', physical_location = \'Edificio T3, Salon 104; Universidad de San Carlos de Guatemala.\')\n    db.project.insert(project_id = \'PV003\', area_level = lvl_4, name = \'SAE-SAP\', description = \'\', physical_location = \'\')\n    db.project.insert(project_id = \'PV004\', area_level = lvl_4, name = \'ITCoE\', description = \'\', physical_location = \'\')\n    db.project.insert(project_id = \'PV005\', area_level = lvl_3, name = \'Centro de C\xc3\xa1lculo FIUSAC\', description = \'\', physical_location = \'Centro de C\xc3\xa1lculo Facultad de Ingenier\xc3\xada USAC.\')\n    db.project.insert(project_id = \'PV006\', area_level = lvl_4, name = \'Rector\xc3\xada (Infraestructura)\', description = \'Proyecto de Infraestructura en Rector\xc3\xada Universidad de San Carlos de Guatemala\', physical_location = \'Rector\xc3\xada USAC.\')\n    db.project.insert(project_id = \'PV007\', area_level = lvl_3, name = \'Centro de Investigaci\xc3\xb3n FIUSAC\', description = \'\', physical_location = \'Centro de Investigaci\xc3\xb3n Facultad de Ingenier\xc3\xada USAC.\')\n    db.project.insert(project_id = \'PV008\', area_level = lvl_3, name = \'Escuela de Ciencias y Sistemas FIUSAC\', description = \'Desarrollo de aplicaciones y utilidades para la Escuela de Ciencias y Sistemas FIUSAC.\', physical_location = \'Escuela de Ciencias y Sistemas, Edificio T3.\')\n    ## Would be a good idea to at least join courses with UV here\n    ## User Roles Setup:\n    supersu = db.auth_user.insert(email = \'admin@admin.com\', first_name = \'Super\',\n                                         last_name = \'Administrator\', username = \'admin\',\n                                         password = db.auth_user.password.validate(\'superadmin\')[0])\n    superadmins = auth.add_group(role = \'Super-Administrator\',description = \'In charge of the whole system administration.\')\n    auth.add_membership(superadmins, supersu)\n    ## Student:\n    students = auth.add_group(\'Student\',\n                              \'User that is enrolled in some practice. Limited access.\')\n    ## Teacher:\n    teachers = auth.add_group(\'Teacher\',\n                              \'User that evaluates students in some courses. When final practice is teaching.\')\n#\n# automatically tries to create the next period in may and november respectively\n# Using the following logic:\n# - In May..Dec the second period of current year is created.\n# - In Nov the first period of next year is created.\n# - In Jan..Apr the first period of current year is created.\n#\nfirst_period = db.period(db.period.name == first_period_name)\nsecond_period = db.period(db.period.name == second_period_name)\nimport datetime\nnow = datetime.datetime.now()\nyear = now.year\nif now.month >= 5:\n    #check and create second semester of current year\n    pery = db.period_year((db.period_year.yearp == year)&\n                          (db.period_year.period == second_period))\n    if not pery:\n        db.period_year.insert(yearp = year, period = second_period)\nelse:\n    #check and create first semester of current year\n    pery = db.period_year((db.period_year.yearp == year)&\n                          (db.period_year.period == first_period))\n    if not pery:\n        db.period_year.insert(yearp = year, period = first_period)\nif now.month >= 11:\n    #check and create first semester of next year\n    pery = db.period_year((db.period_year.yearp == (year + 1))&\n                          (db.period_year.period == first_period))\n    if not pery:\n        db.period_year.insert(yearp = (year + 1), period = first_period)\n## after defining tables, uncomment below to enable auditing\n# auth.enable_record_versioning(db)\n'
p7
sS'snapshot'
p8
(dp9
S'exception'
p10
(dp11
S'__module__'
p12
S"'gluon.contrib.pymysql.err'"
p13
sS'__getslice__'
p14
S"<method-wrapper '__getslice__' of IntegrityError object>"
p15
sS'__str__'
p16
S"<method-wrapper '__str__' of IntegrityError object>"
p17
sS'__reduce__'
p18
S'<built-in method __reduce__ of IntegrityError object>'
p19
sS'__dict__'
p20
S'{}'
p21
sS'__sizeof__'
p22
S'<built-in method __sizeof__ of IntegrityError object>'
p23
sS'__weakref__'
p24
S'None'
p25
sS'__init__'
p26
S"<method-wrapper '__init__' of IntegrityError object>"
p27
sS'__setattr__'
p28
S"<method-wrapper '__setattr__' of IntegrityError object>"
p29
sS'__reduce_ex__'
p30
S'<built-in method __reduce_ex__ of IntegrityError object>'
p31
sS'__new__'
p32
S'<built-in method __new__ of type object>'
p33
sS'__format__'
p34
S'<built-in method __format__ of IntegrityError object>'
p35
sS'__class__'
p36
S"<class 'gluon.contrib.pymysql.err.IntegrityError'>"
p37
sS'__doc__'
p38
S"'Exception raised when the relational integrity o... foreign key check fails, duplicate key,\\n    etc.'"
p39
sS'__getitem__'
p40
S"<method-wrapper '__getitem__' of IntegrityError object>"
p41
sS'__setstate__'
p42
S'<built-in method __setstate__ of IntegrityError object>'
p43
sS'__getattribute__'
p44
S"<method-wrapper '__getattribute__' of IntegrityError object>"
p45
sS'args'
p46
S'(1062, u"Duplicate entry \'First Semester\' for key 2")'
p47
sS'__subclasshook__'
p48
S'<built-in method __subclasshook__ of type object>'
p49
sS'__unicode__'
p50
S'<built-in method __unicode__ of IntegrityError object>'
p51
sS'__delattr__'
p52
S"<method-wrapper '__delattr__' of IntegrityError object>"
p53
sS'__repr__'
p54
S"<method-wrapper '__repr__' of IntegrityError object>"
p55
sS'__hash__'
p56
S"<method-wrapper '__hash__' of IntegrityError object>"
p57
ssS'evalue'
p58
S'(1062, u"Duplicate entry \'First Semester\' for key 2")'
p59
sS'request'
p60
cgluon.html
XML_unpickle
p61
(S's+a\x00\x00<div><table><tr><td style="font-weight:bold;vertical-align:top;">ajax</td><td style="vertical-align:top;">:</td><td><div>False</div></td></tr><tr><td style="font-weight:bold;vertical-align:top;">application</td><td style="vertical-align:top;">:</td><td><div>welcome</div></td></tr><tr><td style="font-weight:bold;vertical-align:top;">args</td><td style="vertical-align:top;">:</td><td><div><table></table></div></td></tr><tr><td style="font-weight:bold;vertical-align:top;">cid</td><td style="vertical-align:top;">:</td><td><div>None</div></td></tr><tr><td style="font-weight:bold;vertical-align:top;">client</td><td style="vertical-align:top;">:</td><td><div>201.216.133.104</div></td></tr><tr><td style="font-weight:bold;vertical-align:top;">controller</td><td style="vertical-align:top;">:</td><td><div>default</div></td></tr><tr><td style="font-weight:bold;vertical-align:top;">cookies</td><td style="vertical-align:top;">:</td><td><div><table><tr><td style="font-weight:bold;vertical-align:top;">session_id_admin</td><td style="vertical-align:top;">:</td><td><div>201.216.133.104-d832d616-21c6-4175-9124-e40a829a5ca1<table><tr><td style="font-weight:bold;vertical-align:top;">comment</td><td style="vertical-align:top;">:</td><td><div></div></td></tr><tr><td style="font-weight:bold;vertical-align:top;">domain</td><td style="vertical-align:top;">:</td><td><div></div></td></tr><tr><td style="font-weight:bold;vertical-align:top;">expires</td><td style="vertical-align:top;">:</td><td><div></div></td></tr><tr><td style="font-weight:bold;vertical-align:top;">httponly</td><td style="vertical-align:top;">:</td><td><div></div></td></tr><tr><td style="font-weight:bold;vertical-align:top;">max-age</td><td style="vertical-align:top;">:</td><td><div></div></td></tr><tr><td style="font-weight:bold;vertical-align:top;">path</td><td style="vertical-align:top;">:</td><td><div></div></td></tr><tr><td style="font-weight:bold;vertical-align:top;">secure</td><td style="vertical-align:top;">:</td><td><div></div></td></tr><tr><td style="font-weight:bold;vertical-align:top;">version</td><td style="vertical-align:top;">:</td><td><div></div></td></tr></table></div></td></tr><tr><td style="font-weight:bold;vertical-align:top;">session_id_cpfecys</td><td style="vertical-align:top;">:</td><td><div>201.216.133.104-0fc914f0-e994-42a8-9b4b-05038dd3158f<table><tr><td style="font-weight:bold;vertical-align:top;">comment</td><td style="vertical-align:top;">:</td><td><div></div></td></tr><tr><td style="font-weight:bold;vertical-align:top;">domain</td><td style="vertical-align:top;">:</td><td><div></div></td></tr><tr><td style="font-weight:bold;vertical-align:top;">expires</td><td style="vertical-align:top;">:</td><td><div></div></td></tr><tr><td style="font-weight:bold;vertical-align:top;">httponly</td><td style="vertical-align:top;">:</td><td><div></div></td></tr><tr><td style="font-weight:bold;vertical-align:top;">max-age</td><td style="vertical-align:top;">:</td><td><div></div></td></tr><tr><td style="font-weight:bold;vertical-align:top;">path</td><td style="vertical-align:top;">:</td><td><div></div></td></tr><tr><td style="font-weight:bold;vertical-align:top;">secure</td><td style="vertical-align:top;">:</td><td><div></div></td></tr><tr><td style="font-weight:bold;vertical-align:top;">version</td><td style="vertical-align:top;">:</td><td><div></div></td></tr></table></div></td></tr><tr><td style="font-weight:bold;vertical-align:top;">session_id_welcome</td><td style="vertical-align:top;">:</td><td><div>201.216.133.104-058be5f5-8064-46f2-8510-d9c43e305a57<table><tr><td style="font-weight:bold;vertical-align:top;">comment</td><td style="vertical-align:top;">:</td><td><div></div></td></tr><tr><td style="font-weight:bold;vertical-align:top;">domain</td><td style="vertical-align:top;">:</td><td><div></div></td></tr><tr><td style="font-weight:bold;vertical-align:top;">expires</td><td style="vertical-align:top;">:</td><td><div></div></td></tr><tr><td style="font-weight:bold;vertical-align:top;">httponly</td><td style="vertical-align:top;">:</td><td><div></div></td></tr><tr><td style="font-weight:bold;vertical-align:top;">max-age</td><td style="vertical-align:top;">:</td><td><div></div></td></tr><tr><td style="font-weight:bold;vertical-align:top;">path</td><td style="vertical-align:top;">:</td><td><div></div></td></tr><tr><td style="font-weight:bold;vertical-align:top;">secure</td><td style="vertical-align:top;">:</td><td><div></div></td></tr><tr><td style="font-weight:bold;vertical-align:top;">version</td><td style="vertical-align:top;">:</td><td><div></div></td></tr></table></div></td></tr></table></div></td></tr><tr><td style="font-weight:bold;vertical-align:top;">env</td><td style="vertical-align:top;">:</td><td><div><table><tr><td style="font-weight:bold;vertical-align:top;">DOCUMENT_ROOT</td><td style="vertical-align:top;">:</td><td><div>/var/www/html</div></td></tr><tr><td style="font-weight:bold;vertical-align:top;">GATEWAY_INTERFACE</td><td style="vertical-align:top;">:</td><td><div>CGI/1.1</div></td></tr><tr><td style="font-weight:bold;vertical-align:top;">HTTPS</td><td style="vertical-align:top;">:</td><td><div>1</div></td></tr><tr><td style="font-weight:bold;vertical-align:top;">HTTP_ACCEPT</td><td style="vertical-align:top;">:</td><td><div>text/html,application/xhtml+xml,application/xml;q=0.9,image/webp,*/*;q=0.8</div></td></tr><tr><td style="font-weight:bold;vertical-align:top;">HTTP_ACCEPT_ENCODING</td><td style="vertical-align:top;">:</td><td><div>gzip,deflate,sdch</div></td></tr><tr><td style="font-weight:bold;vertical-align:top;">HTTP_ACCEPT_LANGUAGE</td><td style="vertical-align:top;">:</td><td><div>es,en-US;q=0.8,en;q=0.6</div></td></tr><tr><td style="font-weight:bold;vertical-align:top;">HTTP_CONNECTION</td><td style="vertical-align:top;">:</td><td><div>keep-alive</div></td></tr><tr><td style="font-weight:bold;vertical-align:top;">HTTP_COOKIE</td><td style="vertical-align:top;">:</td><td><div>session_id_welcome=201.216.133.104-058be5f5-8064-46f2-8510-d9c43e305a57; session_id_cpfecys=201.216.133.104-0fc914f0-e994-42a8-9b4b-05038dd3158f; session_id_admin=201.216.133.104-d832d616-21c6-4175-9124-e40a829a5ca1</div></td></tr><tr><td style="font-weight:bold;vertical-align:top;">HTTP_HOST</td><td style="vertical-align:top;">:</td><td><div>omnomyumi.com</div></td></tr><tr><td style="font-weight:bold;vertical-align:top;">HTTP_USER_AGENT</td><td style="vertical-align:top;">:</td><td><div>Mozilla/5.0 (X11; Linux i686) AppleWebKit/537.36 (KHTML, like Gecko) Chrome/32.0.1700.107 Safari/537.36</div></td></tr><tr><td style="font-weight:bold;vertical-align:top;">PATH_INFO</td><td style="vertical-align:top;">:</td><td><div>/welcome</div></td></tr><tr><td style="font-weight:bold;vertical-align:top;">PATH_TRANSLATED</td><td style="vertical-align:top;">:</td><td><div>/var/www/html/welcome</div></td></tr><tr><td style="font-weight:bold;vertical-align:top;">QUERY_STRING</td><td style="vertical-align:top;">:</td><td><div></div></td></tr><tr><td style="font-weight:bold;vertical-align:top;">REMOTE_ADDR</td><td style="vertical-align:top;">:</td><td><div>201.216.133.104</div></td></tr><tr><td style="font-weight:bold;vertical-align:top;">REMOTE_PORT</td><td style="vertical-align:top;">:</td><td><div>63926</div></td></tr><tr><td style="font-weight:bold;vertical-align:top;">REQUEST_METHOD</td><td style="vertical-align:top;">:</td><td><div>GET</div></td></tr><tr><td style="font-weight:bold;vertical-align:top;">REQUEST_URI</td><td style="vertical-align:top;">:</td><td><div>/dtt/welcome</div></td></tr><tr><td style="font-weight:bold;vertical-align:top;">SCRIPT_FILENAME</td><td style="vertical-align:top;">:</td><td><div>/opt/web-apps/web2py/wsgihandler.py</div></td></tr><tr><td style="font-weight:bold;vertical-align:top;">SCRIPT_NAME</td><td style="vertical-align:top;">:</td><td><div>/dtt</div></td></tr><tr><td style="font-weight:bold;vertical-align:top;">SERVER_ADDR</td><td style="vertical-align:top;">:</td><td><div>162.243.16.29</div></td></tr><tr><td style="font-weight:bold;vertical-align:top;">SERVER_ADMIN</td><td style="vertical-align:top;">:</td><td><div>root@localhost</div></td></tr><tr><td style="font-weight:bold;vertical-align:top;">SERVER_NAME</td><td style="vertical-align:top;">:</td><td><div>omnomyumi.com</div></td></tr><tr><td style="font-weight:bold;vertical-align:top;">SERVER_PORT</td><td style="vertical-align:top;">:</td><td><div>443</div></td></tr><tr><td style="font-weight:bold;vertical-align:top;">SERVER_PROTOCOL</td><td style="vertical-align:top;">:</td><td><div>HTTP/1.1</div></td></tr><tr><td style="font-weight:bold;vertical-align:top;">SERVER_SIGNATURE</td><td style="vertical-align:top;">:</td><td><div>&lt;address&gt;Apache/2.2.3 (CentOS) Server at omnomyumi.com Port 443&lt;/address&gt;\n</div></td></tr><tr><td style="font-weight:bold;vertical-align:top;">SERVER_SOFTWARE</td><td style="vertical-align:top;">:</td><td><div>Apache/2.2.3 (CentOS)</div></td></tr><tr><td style="font-weight:bold;vertical-align:top;">app_folders</td><td style="vertical-align:top;">:</td><td><div>set([&#x27;/opt/web-apps/web2py/applications/cpfecys/&#x27;, &#x27;/opt/web-apps/web2py/applications/welcome/&#x27;, &#x27;/opt/web-apps/web2py/applications/admin/&#x27;])</div></td></tr><tr><td style="font-weight:bold;vertical-align:top;">applications_parent</td><td style="vertical-align:top;">:</td><td><div>/opt/web-apps/web2py</div></td></tr><tr><td style="font-weight:bold;vertical-align:top;">db_sessions</td><td style="vertical-align:top;">:</td><td><div>set([])</div></td></tr><tr><td style="font-weight:bold;vertical-align:top;">debugging</td><td style="vertical-align:top;">:</td><td><div>True</div></td></tr><tr><td style="font-weight:bold;vertical-align:top;">document_root</td><td style="vertical-align:top;">:</td><td><div>/var/www/html</div></td></tr><tr><td style="font-weight:bold;vertical-align:top;">gateway_interface</td><td style="vertical-align:top;">:</td><td><div>CGI/1.1</div></td></tr><tr><td style="font-weight:bold;vertical-align:top;">gluon_parent</td><td style="vertical-align:top;">:</td><td><div>/opt/web-apps/web2py</div></td></tr><tr><td style="font-weight:bold;vertical-align:top;">http_accept</td><td style="vertical-align:top;">:</td><td><div>text/html,application/xhtml+xml,application/xml;q=0.9,image/webp,*/*;q=0.8</div></td></tr><tr><td style="font-weight:bold;vertical-align:top;">http_accept_encoding</td><td style="vertical-align:top;">:</td><td><div>gzip,deflate,sdch</div></td></tr><tr><td style="font-weight:bold;vertical-align:top;">http_accept_language</td><td style="vertical-align:top;">:</td><td><div>es,en-US;q=0.8,en;q=0.6</div></td></tr><tr><td style="font-weight:bold;vertical-align:top;">http_connection</td><td style="vertical-align:top;">:</td><td><div>keep-alive</div></td></tr><tr><td style="font-weight:bold;vertical-align:top;">http_cookie</td><td style="vertical-align:top;">:</td><td><div>session_id_welcome=201.216.133.104-058be5f5-8064-46f2-8510-d9c43e305a57; session_id_cpfecys=201.216.133.104-0fc914f0-e994-42a8-9b4b-05038dd3158f; session_id_admin=201.216.133.104-d832d616-21c6-4175-9124-e40a829a5ca1</div></td></tr><tr><td style="font-weight:bold;vertical-align:top;">http_host</td><td style="vertical-align:top;">:</td><td><div>omnomyumi.com</div></td></tr><tr><td style="font-weight:bold;vertical-align:top;">http_user_agent</td><td style="vertical-align:top;">:</td><td><div>Mozilla/5.0 (X11; Linux i686) AppleWebKit/537.36 (KHTML, like Gecko) Chrome/32.0.1700.107 Safari/537.36</div></td></tr><tr><td style="font-weight:bold;vertical-align:top;">https</td><td style="vertical-align:top;">:</td><td><div>1</div></td></tr><tr><td style="font-weight:bold;vertical-align:top;">is_jython</td><td style="vertical-align:top;">:</td><td><div>False</div></td></tr><tr><td style="font-weight:bold;vertical-align:top;">is_pypy</td><td style="vertical-align:top;">:</td><td><div>False</div></td></tr><tr><td style="font-weight:bold;vertical-align:top;">is_source</td><td style="vertical-align:top;">:</td><td><div>True</div></td></tr><tr><td style="font-weight:bold;vertical-align:top;">local_hosts</td><td style="vertical-align:top;">:</td><td><div><table><tr><td><div>162.243.16.29</div></td></tr><tr><td><div>::ffff:127.0.0.1</div></td></tr><tr><td><div>::1</div></td></tr><tr><td><div>cprecys</div></td></tr><tr><td><div>omnomyumi.com</div></td></tr><tr><td><div>127.0.0.1</div></td></tr></table></div></td></tr><tr><td style="font-weight:bold;vertical-align:top;">mod_wsgi.application_group</td><td style="vertical-align:top;">:</td><td><div>127.0.0.1|/dtt</div></td></tr><tr><td style="font-weight:bold;vertical-align:top;">mod_wsgi.callable_object</td><td style="vertical-align:top;">:</td><td><div>application</div></td></tr><tr><td style="font-weight:bold;vertical-align:top;">mod_wsgi.handler_script</td><td style="vertical-align:top;">:</td><td><div></div></td></tr><tr><td style="font-weight:bold;vertical-align:top;">mod_wsgi.input_chunked</td><td style="vertical-align:top;">:</td><td><div>0</div></td></tr><tr><td style="font-weight:bold;vertical-align:top;">mod_wsgi.listener_host</td><td style="vertical-align:top;">:</td><td><div></div></td></tr><tr><td style="font-weight:bold;vertical-align:top;">mod_wsgi.listener_port</td><td style="vertical-align:top;">:</td><td><div>443</div></td></tr><tr><td style="font-weight:bold;vertical-align:top;">mod_wsgi.process_group</td><td style="vertical-align:top;">:</td><td><div>web2py</div></td></tr><tr><td style="font-weight:bold;vertical-align:top;">mod_wsgi.request_handler</td><td style="vertical-align:top;">:</td><td><div>wsgi-script</div></td></tr><tr><td style="font-weight:bold;vertical-align:top;">mod_wsgi.script_reloading</td><td style="vertical-align:top;">:</td><td><div>1</div></td></tr><tr><td style="font-weight:bold;vertical-align:top;">mod_wsgi.version</td><td style="vertical-align:top;">:</td><td><div><table><tr><td><div>3</div></td></tr><tr><td><div>3</div></td></tr></table></div></td></tr><tr><td style="font-weight:bold;vertical-align:top;">mod_wsgi_application_group</td><td style="vertical-align:top;">:</td><td><div>127.0.0.1|/dtt</div></td></tr><tr><td style="font-weight:bold;vertical-align:top;">mod_wsgi_callable_object</td><td style="vertical-align:top;">:</td><td><div>application</div></td></tr><tr><td style="font-weight:bold;vertical-align:top;">mod_wsgi_handler_script</td><td style="vertical-align:top;">:</td><td><div></div></td></tr><tr><td style="font-weight:bold;vertical-align:top;">mod_wsgi_input_chunked</td><td style="vertical-align:top;">:</td><td><div>0</div></td></tr><tr><td style="font-weight:bold;vertical-align:top;">mod_wsgi_listener_host</td><td style="vertical-align:top;">:</td><td><div></div></td></tr><tr><td style="font-weight:bold;vertical-align:top;">mod_wsgi_listener_port</td><td style="vertical-align:top;">:</td><td><div>443</div></td></tr><tr><td style="font-weight:bold;vertical-align:top;">mod_wsgi_process_group</td><td style="vertical-align:top;">:</td><td><div>web2py</div></td></tr><tr><td style="font-weight:bold;vertical-align:top;">mod_wsgi_request_handler</td><td style="vertical-align:top;">:</td><td><div>wsgi-script</div></td></tr><tr><td style="font-weight:bold;vertical-align:top;">mod_wsgi_script_reloading</td><td style="vertical-align:top;">:</td><td><div>1</div></td></tr><tr><td style="font-weight:bold;vertical-align:top;">mod_wsgi_version</td><td style="vertical-align:top;">:</td><td><div><table><tr><td><div>3</div></td></tr><tr><td><div>3</div></td></tr></table></div></td></tr><tr><td style="font-weight:bold;vertical-align:top;">path_info</td><td style="vertical-align:top;">:</td><td><div>/welcome</div></td></tr><tr><td style="font-weight:bold;vertical-align:top;">path_translated</td><td style="vertical-align:top;">:</td><td><div>/var/www/html/welcome</div></td></tr><tr><td style="font-weight:bold;vertical-align:top;">query_string</td><td style="vertical-align:top;">:</td><td><div></div></td></tr><tr><td style="font-weight:bold;vertical-align:top;">remote_addr</td><td style="vertical-align:top;">:</td><td><div>201.216.133.104</div></td></tr><tr><td style="font-weight:bold;vertical-align:top;">remote_port</td><td style="vertical-align:top;">:</td><td><div>63926</div></td></tr><tr><td style="font-weight:bold;vertical-align:top;">request_method</td><td style="vertical-align:top;">:</td><td><div>GET</div></td></tr><tr><td style="font-weight:bold;vertical-align:top;">request_uri</td><td style="vertical-align:top;">:</td><td><div>/welcome/default/index</div></td></tr><tr><td style="font-weight:bold;vertical-align:top;">script_filename</td><td style="vertical-align:top;">:</td><td><div>/opt/web-apps/web2py/wsgihandler.py</div></td></tr><tr><td style="font-weight:bold;vertical-align:top;">script_name</td><td style="vertical-align:top;">:</td><td><div>/dtt</div></td></tr><tr><td style="font-weight:bold;vertical-align:top;">server_addr</td><td style="vertical-align:top;">:</td><td><div>162.243.16.29</div></td></tr><tr><td style="font-weight:bold;vertical-align:top;">server_admin</td><td style="vertical-align:top;">:</td><td><div>root@localhost</div></td></tr><tr><td style="font-weight:bold;vertical-align:top;">server_name</td><td style="vertical-align:top;">:</td><td><div>omnomyumi.com</div></td></tr><tr><td style="font-weight:bold;vertical-align:top;">server_port</td><td style="vertical-align:top;">:</td><td><div>443</div></td></tr><tr><td style="font-weight:bold;vertical-align:top;">server_protocol</td><td style="vertical-align:top;">:</td><td><div>HTTP/1.1</div></td></tr><tr><td style="font-weight:bold;vertical-align:top;">server_signature</td><td style="vertical-align:top;">:</td><td><div>&lt;address&gt;Apache/2.2.3 (CentOS) Server at omnomyumi.com Port 443&lt;/address&gt;\n</div></td></tr><tr><td style="font-weight:bold;vertical-align:top;">server_software</td><td style="vertical-align:top;">:</td><td><div>Apache/2.2.3 (CentOS)</div></td></tr><tr><td style="font-weight:bold;vertical-align:top;">web2py_original_uri</td><td style="vertical-align:top;">:</td><td><div>/welcome</div></td></tr><tr><td style="font-weight:bold;vertical-align:top;">web2py_path</td><td style="vertical-align:top;">:</td><td><div>/opt/web-apps/web2py</div></td></tr><tr><td style="font-weight:bold;vertical-align:top;">web2py_version</td><td style="vertical-align:top;">:</td><td><div>2.8.2-stable+timestamp.2013.11.28.13.54.07</div></td></tr><tr><td style="font-weight:bold;vertical-align:top;">wsgi.errors</td><td style="vertical-align:top;">:</td><td><div>&lt;mod_wsgi.Log object at 0xaa16ca0&gt;</div></td></tr><tr><td style="font-weight:bold;vertical-align:top;">wsgi.file_wrapper</td><td style="vertical-align:top;">:</td><td><div>&lt;built-in method file_wrapper of mod_wsgi.Adapter object at 0xad52338&gt;</div></td></tr><tr><td style="font-weight:bold;vertical-align:top;">wsgi.input</td><td style="vertical-align:top;">:</td><td><div>&lt;mod_wsgi.Input object at 0xb0c76d8&gt;</div></td></tr><tr><td style="font-weight:bold;vertical-align:top;">wsgi.multiprocess</td><td style="vertical-align:top;">:</td><td><div>True</div></td></tr><tr><td style="font-weight:bold;vertical-align:top;">wsgi.multithread</td><td style="vertical-align:top;">:</td><td><div>False</div></td></tr><tr><td style="font-weight:bold;vertical-align:top;">wsgi.run_once</td><td style="vertical-align:top;">:</td><td><div>False</div></td></tr><tr><td style="font-weight:bold;vertical-align:top;">wsgi.url_scheme</td><td style="vertical-align:top;">:</td><td><div>https</div></td></tr><tr><td style="font-weight:bold;vertical-align:top;">wsgi.version</td><td style="vertical-align:top;">:</td><td><div><table><tr><td><div>1</div></td></tr><tr><td><div>1</div></td></tr></table></div></td></tr><tr><td style="font-weight:bold;vertical-align:top;">wsgi_errors</td><td style="vertical-align:top;">:</td><td><div>&lt;mod_wsgi.Log object at 0xaa16ca0&gt;</div></td></tr><tr><td style="font-weight:bold;vertical-align:top;">wsgi_file_wrapper</td><td style="vertical-align:top;">:</td><td><div>&lt;built-in method file_wrapper of mod_wsgi.Adapter object at 0xad52338&gt;</div></td></tr><tr><td style="font-weight:bold;vertical-align:top;">wsgi_input</td><td style="vertical-align:top;">:</td><td><div>&lt;mod_wsgi.Input object at 0xb0c76d8&gt;</div></td></tr><tr><td style="font-weight:bold;vertical-align:top;">wsgi_multiprocess</td><td style="vertical-align:top;">:</td><td><div>True</div></td></tr><tr><td style="font-weight:bold;vertical-align:top;">wsgi_multithread</td><td style="vertical-align:top;">:</td><td><div>False</div></td></tr><tr><td style="font-weight:bold;vertical-align:top;">wsgi_run_once</td><td style="vertical-align:top;">:</td><td><div>False</div></td></tr><tr><td style="font-weight:bold;vertical-align:top;">wsgi_url_scheme</td><td style="vertical-align:top;">:</td><td><div>https</div></td></tr><tr><td style="font-weight:bold;vertical-align:top;">wsgi_version</td><td style="vertical-align:top;">:</td><td><div><table><tr><td><div>1</div></td></tr><tr><td><div>1</div></td></tr></table></div></td></tr></table></div></td></tr><tr><td style="font-weight:bold;vertical-align:top;">extension</td><td style="vertical-align:top;">:</td><td><div>html</div></td></tr><tr><td style="font-weight:bold;vertical-align:top;">folder</td><td style="vertical-align:top;">:</td><td><div>/opt/web-apps/web2py/applications/welcome/</div></td></tr><tr><td style="font-weight:bold;vertical-align:top;">function</td><td style="vertical-align:top;">:</td><td><div>index</div></td></tr><tr><td style="font-weight:bold;vertical-align:top;">global_settings</td><td style="vertical-align:top;">:</td><td><div><table><tr><td style="font-weight:bold;vertical-align:top;">app_folders</td><td style="vertical-align:top;">:</td><td><div>set([&#x27;/opt/web-apps/web2py/applications/cpfecys/&#x27;, &#x27;/opt/web-apps/web2py/applications/welcome/&#x27;, &#x27;/opt/web-apps/web2py/applications/admin/&#x27;])</div></td></tr><tr><td style="font-weight:bold;vertical-align:top;">applications_parent</td><td style="vertical-align:top;">:</td><td><div>/opt/web-apps/web2py</div></td></tr><tr><td style="font-weight:bold;vertical-align:top;">db_sessions</td><td style="vertical-align:top;">:</td><td><div>set([])</div></td></tr><tr><td style="font-weight:bold;vertical-align:top;">debugging</td><td style="vertical-align:top;">:</td><td><div>True</div></td></tr><tr><td style="font-weight:bold;vertical-align:top;">gluon_parent</td><td style="vertical-align:top;">:</td><td><div>/opt/web-apps/web2py</div></td></tr><tr><td style="font-weight:bold;vertical-align:top;">is_jython</td><td style="vertical-align:top;">:</td><td><div>False</div></td></tr><tr><td style="font-weight:bold;vertical-align:top;">is_pypy</td><td style="vertical-align:top;">:</td><td><div>False</div></td></tr><tr><td style="font-weight:bold;vertical-align:top;">is_source</td><td style="vertical-align:top;">:</td><td><div>True</div></td></tr><tr><td style="font-weight:bold;vertical-align:top;">local_hosts</td><td style="vertical-align:top;">:</td><td><div><table><tr><td><div>162.243.16.29</div></td></tr><tr><td><div>::ffff:127.0.0.1</div></td></tr><tr><td><div>::1</div></td></tr><tr><td><div>cprecys</div></td></tr><tr><td><div>omnomyumi.com</div></td></tr><tr><td><div>127.0.0.1</div></td></tr></table></div></td></tr><tr><td style="font-weight:bold;vertical-align:top;">web2py_version</td><td style="vertical-align:top;">:</td><td><div>2.8.2-stable+timestamp.2013.11.28.13.54.07</div></td></tr></table></div></td></tr><tr><td style="font-weight:bold;vertical-align:top;">is_https</td><td style="vertical-align:top;">:</td><td><div>True</div></td></tr><tr><td style="font-weight:bold;vertical-align:top;">is_local</td><td style="vertical-align:top;">:</td><td><div>False</div></td></tr><tr><td style="font-weight:bold;vertical-align:top;">is_restful</td><td style="vertical-align:top;">:</td><td><div>False</div></td></tr><tr><td style="font-weight:bold;vertical-align:top;">now</td><td style="vertical-align:top;">:</td><td><div>datetime.datetime(2014, 2, 26, 5, 53, 2, 523723)</div></td></tr><tr><td style="font-weight:bold;vertical-align:top;">url</td><td style="vertical-align:top;">:</td><td><div>/welcome</div></td></tr><tr><td style="font-weight:bold;vertical-align:top;">utcnow</td><td style="vertical-align:top;">:</td><td><div>datetime.datetime(2014, 2, 26, 10, 53, 2, 523760)</div></td></tr><tr><td style="font-weight:bold;vertical-align:top;">uuid</td><td style="vertical-align:top;">:</td><td><div>welcome/201.216.133.104.2014-02-26.05-53-02.af4787f8-7f2e-4e27-97ba-1505bd554c6e</div></td></tr><tr><td style="font-weight:bold;vertical-align:top;">wsgi</td><td style="vertical-align:top;">:</td><td><div>&lt;gluon.main.LazyWSGI object at 0xb5b856c&gt;</div></td></tr></table></div>'
tRp62
sS'frames'
p63
(lp64
(dp65
S'file'
p66
S'/opt/web-apps/web2py/gluon/restricted.py'
p67
sS'dump'
p68
(dp69
S'environment'
p70
S"{'A': <class 'gluon.html.A'>, 'ADD': <function ADD>, 'ANY_OF': <class 'gluon.validators.ANY_OF'>, 'Auth': <class 'gluon.tools.Auth'>, 'B': <class 'gluon.html.B'>, 'BEAUTIFY': <class 'gluon.html.BEAUTIFY'>, 'BODY': <class 'gluon.html.BODY'>, 'BR': <class 'gluon.html.BR'>, 'BUTTON': <class 'gluon.html.BUTTON'>, 'BaseAdapter': <class 'gluon.dal.BaseAdapter'>, ...}"
p71
sS'ccode'
p72
S'<code object <module> at 0xab3e0b0, file "/opt/w...b2py/applications/welcome/models/db.py", line 12>'
p73
ssS'lnum'
p74
I217
sS'lines'
p75
(dp76
I212
S'    try:'
p77
sI213
S'        if isinstance(code, types.CodeType):'
p78
sI214
S'            ccode = code'
p79
sI215
S'        else:'
p80
sI216
S'            ccode = compile2(code, layer)'
p81
sI217
S'        exec ccode in environment'
p82
sI218
S'    except HTTP:'
p83
sI219
S'        raise'
p84
sI220
S'    except RestrictedError:'
p85
sI221
S'        # do not encapsulate (obfuscate) the original RestrictedError'
p86
ssS'call'
p87
S"(code='# -*- coding: utf-8 -*-\\n\\n#######################...ble auditing\\n# auth.enable_record_versioning(db)\\n', environment={'A': <class 'gluon.html.A'>, 'ADD': <function ADD>, 'ANY_OF': <class 'gluon.validators.ANY_OF'>, 'Auth': <class 'gluon.tools.Auth'>, 'B': <class 'gluon.html.B'>, 'BEAUTIFY': <class 'gluon.html.BEAUTIFY'>, 'BODY': <class 'gluon.html.BODY'>, 'BR': <class 'gluon.html.BR'>, 'BUTTON': <class 'gluon.html.BUTTON'>, 'BaseAdapter': <class 'gluon.dal.BaseAdapter'>, ...}, layer='/opt/web-apps/web2py/applications/welcome/models/db.py')"
p88
sS'func'
p89
S'restricted'
p90
sa(dp91
g66
S'/opt/web-apps/web2py/applications/welcome/models/db.py'
p92
sg68
(dp93
S'first_period_name'
p94
S"'First Semester'"
p95
sS'db'
p96
S'<DAL uri="mysql://root@localhost/cpfecys">'
p97
sS'db.period.insert'
p98
S'<bound method Table.insert of <Table period (id,name)>>'
p99
sS'semester1'
p100
S'undefined'
p101
sS'db.period'
p102
S'<Table period (id,name)>'
p103
sS'name'
p104
g101
ssg74
I347
sg75
(dp105
I342
S''
sI343
S'    #Default log types'
p106
sI344
S"    db.log_type.insert(name='Activity')"
p107
sI345
S"    db.log_type.insert(name='Anomaly')"
p108
sI346
S''
sI347
S'    semester1 = db.period.insert(name = first_period_name)'
p109
sI348
S'    semester2 = db.period.insert(name = second_period_name)'
p110
sI349
S'    ## Final Practice Areas of DTT'
p111
sI350
S'    lvl_1 = db.area_level.insert(name = "DTT Tutor Acad\xc3\xa9mico", description = "")'
p112
sI351
S'    lvl_2 = db.area_level.insert(name = "DTT Tutor de Comunicaci\xc3\xb3n", description = "")'
p113
ssg87
S'()'
p114
sg89
S'<module>'
p115
sa(dp116
g66
S'/opt/web-apps/web2py/gluon/dal.py'
p117
sg68
(dp118
S'self._listify'
p119
S'<bound method Table._listify of <Table period (id,name)>>'
p120
sS'fields'
p121
S"{'name': 'First Semester'}"
p122
sS'self'
p123
S'<Table period (id,name)>'
p124
sS'ret'
p125
g101
sS'self._db._adapter'
p126
S'<gluon.dal.MySQLAdapter object>'
p127
sS'self._db._adapter.insert'
p128
S'<bound method MySQLAdapter.insert of <gluon.dal.MySQLAdapter object>>'
p129
sS'self._db'
p130
S'<DAL uri="mysql://root@localhost/cpfecys">'
p131
ssg74
I9003
sg75
(dp132
I8998
S''
sI8999
S'    def insert(self, **fields):'
p133
sI9000
S'        fields = self._defaults(fields)'
p134
sI9001
S'        self._attempt_upload(fields)'
p135
sI9002
S'        if any(f(fields) for f in self._before_insert): return 0'
p136
sI9003
S'        ret =  self._db._adapter.insert(self, self._listify(fields))'
p137
sI9004
S'        if ret and self._after_insert:'
p138
sI9005
S'            fields = Row(fields)'
p139
sI9006
S'            [f(fields,ret) for f in self._after_insert]'
p140
sI9007
S'        return ret'
p141
ssg87
S"(self=<Table period (id,name)>, **fields={'name': 'First Semester'})"
p142
sg89
S'insert'
p143
sa(dp144
g66
S'/opt/web-apps/web2py/gluon/dal.py'
p145
sg68
(dp146
S'e'
S'IntegrityError(1062, u"Duplicate entry \'First Semester\' for key 2")'
p147
ssg74
I1311
sg75
(dp148
I1312
S"        if hasattr(table,'_primarykey'):"
p149
sI1313
S'            return dict([(k[0].name, k[1]) for k in fields \\'
p150
sI1314
S'                             if k[0].name in table._primarykey])'
p151
sI1315
S'        id = self.lastrowid(table)'
p152
sI1306
S'            self.execute(query)'
p153
sI1307
S'        except Exception:'
p154
sI1308
S'            e = sys.exc_info()[1]'
p155
sI1309
S"            if hasattr(table,'_on_insert_error'):"
p156
sI1310
S'                return table._on_insert_error(table,fields,e)'
p157
sI1311
S'            raise e'
p158
ssg87
S"(self=<gluon.dal.MySQLAdapter object>, table=<Table period (id,name)>, fields=[(<gluon.dal.Field object>, 'First Semester')])"
p159
sg89
g143
sasS'pyver'
p160
S'Python 2.7.5: /usr/bin/python (prefix: /opt)'
p161
sS'session'
p162
g61
(S's\x1a\x00\x00\x00<div><table></table></div>'
tRp163
sS'etype'
p164
S"<class 'gluon.contrib.pymysql.err.IntegrityError'>"
p165
sS'date'
p166
S'Wed Feb 26 05:53:46 2014'
p167
sS'response'
p168
g61
(S's\x93\x15\x00\x00<div><table><tr><td style="font-weight:bold;vertical-align:top;">body</td><td style="vertical-align:top;">:</td><td><div>&lt;cStringIO.StringO object at 0xb5b8460&gt;</div></td></tr><tr><td style="font-weight:bold;vertical-align:top;">cookies</td><td style="vertical-align:top;">:</td><td><div><table><tr><td style="font-weight:bold;vertical-align:top;">session_id_welcome</td><td style="vertical-align:top;">:</td><td><div>201.216.133.104-59b08074-3e1a-41d5-9b54-4a6dd51a1507<table><tr><td style="font-weight:bold;vertical-align:top;">comment</td><td style="vertical-align:top;">:</td><td><div></div></td></tr><tr><td style="font-weight:bold;vertical-align:top;">domain</td><td style="vertical-align:top;">:</td><td><div></div></td></tr><tr><td style="font-weight:bold;vertical-align:top;">expires</td><td style="vertical-align:top;">:</td><td><div></div></td></tr><tr><td style="font-weight:bold;vertical-align:top;">httponly</td><td style="vertical-align:top;">:</td><td><div></div></td></tr><tr><td style="font-weight:bold;vertical-align:top;">max-age</td><td style="vertical-align:top;">:</td><td><div></div></td></tr><tr><td style="font-weight:bold;vertical-align:top;">path</td><td style="vertical-align:top;">:</td><td><div>/</div></td></tr><tr><td style="font-weight:bold;vertical-align:top;">secure</td><td style="vertical-align:top;">:</td><td><div></div></td></tr><tr><td style="font-weight:bold;vertical-align:top;">version</td><td style="vertical-align:top;">:</td><td><div></div></td></tr></table></div></td></tr></table></div></td></tr><tr><td style="font-weight:bold;vertical-align:top;">delimiters</td><td style="vertical-align:top;">:</td><td><div><table><tr><td><div>{{</div></td></tr><tr><td><div>}}</div></td></tr></table></div></td></tr><tr><td style="font-weight:bold;vertical-align:top;">files</td><td style="vertical-align:top;">:</td><td><div><table></table></div></td></tr><tr><td style="font-weight:bold;vertical-align:top;">flash</td><td style="vertical-align:top;">:</td><td><div></div></td></tr><tr><td style="font-weight:bold;vertical-align:top;">generic_patterns</td><td style="vertical-align:top;">:</td><td><div><table></table></div></td></tr><tr><td style="font-weight:bold;vertical-align:top;">headers</td><td style="vertical-align:top;">:</td><td><div><table><tr><td style="font-weight:bold;vertical-align:top;">X-Powered-By</td><td style="vertical-align:top;">:</td><td><div>web2py</div></td></tr></table></div></td></tr><tr><td style="font-weight:bold;vertical-align:top;">menu</td><td style="vertical-align:top;">:</td><td><div><table></table></div></td></tr><tr><td style="font-weight:bold;vertical-align:top;">meta</td><td style="vertical-align:top;">:</td><td><div><table></table></div></td></tr><tr><td style="font-weight:bold;vertical-align:top;">models_to_run</td><td style="vertical-align:top;">:</td><td><div><table><tr><td><div>^\\w+\\.py$</div></td></tr><tr><td><div>^default/\\w+\\.py$</div></td></tr><tr><td><div>^default/index/\\w+\\.py$</div></td></tr></table></div></td></tr><tr><td style="font-weight:bold;vertical-align:top;">postprocessing</td><td style="vertical-align:top;">:</td><td><div><table></table></div></td></tr><tr><td style="font-weight:bold;vertical-align:top;">session_client</td><td style="vertical-align:top;">:</td><td><div>201.216.133.104</div></td></tr><tr><td style="font-weight:bold;vertical-align:top;">session_cookie_compression_level</td><td style="vertical-align:top;">:</td><td><div>None</div></td></tr><tr><td style="font-weight:bold;vertical-align:top;">session_cookie_expires</td><td style="vertical-align:top;">:</td><td><div>None</div></td></tr><tr><td style="font-weight:bold;vertical-align:top;">session_cookie_key</td><td style="vertical-align:top;">:</td><td><div>None</div></td></tr><tr><td style="font-weight:bold;vertical-align:top;">session_data_name</td><td style="vertical-align:top;">:</td><td><div>session_data_welcome</div></td></tr><tr><td style="font-weight:bold;vertical-align:top;">session_file</td><td style="vertical-align:top;">:</td><td><div>None</div></td></tr><tr><td style="font-weight:bold;vertical-align:top;">session_filename</td><td style="vertical-align:top;">:</td><td><div>/opt/web-apps/web2py/applications/welcome/sessions/201.216.133.104-59b08074-3e1a-41d5-9b54-4a6dd51a1507</div></td></tr><tr><td style="font-weight:bold;vertical-align:top;">session_hash</td><td style="vertical-align:top;">:</td><td><div>106f4c22ca06cc343e42b73a0d8492f6</div></td></tr><tr><td style="font-weight:bold;vertical-align:top;">session_id</td><td style="vertical-align:top;">:</td><td><div>201.216.133.104-59b08074-3e1a-41d5-9b54-4a6dd51a1507</div></td></tr><tr><td style="font-weight:bold;vertical-align:top;">session_id_name</td><td style="vertical-align:top;">:</td><td><div>session_id_welcome</div></td></tr><tr><td style="font-weight:bold;vertical-align:top;">session_masterapp</td><td style="vertical-align:top;">:</td><td><div>welcome</div></td></tr><tr><td style="font-weight:bold;vertical-align:top;">session_new</td><td style="vertical-align:top;">:</td><td><div>True</div></td></tr><tr><td style="font-weight:bold;vertical-align:top;">session_storage_type</td><td style="vertical-align:top;">:</td><td><div>file</div></td></tr><tr><td style="font-weight:bold;vertical-align:top;">status</td><td style="vertical-align:top;">:</td><td><div>200</div></td></tr><tr><td style="font-weight:bold;vertical-align:top;">view</td><td style="vertical-align:top;">:</td><td><div>default/index.html</div></td></tr></table></div>'
tRp169
sS'locals'
p170
(dp171
S'fields'
p172
S"[(<gluon.dal.Field object>, 'First Semester')]"
p173
sS'self'
p174
S'<gluon.dal.MySQLAdapter object>'
p175
sS'e'
S'IntegrityError(1062, u"Duplicate entry \'First Semester\' for key 2")'
p176
sS'table'
p177
S'<Table period (id,name)>'
p178
sS'query'
p179
S'"INSERT INTO period(name) VALUES (\'First Semester\');"'
p180
sssS'traceback'
p181
S'Traceback (most recent call last):\n  File "/opt/web-apps/web2py/gluon/restricted.py", line 217, in restricted\n    exec ccode in environment\n  File "/opt/web-apps/web2py/applications/welcome/models/db.py", line 347, in <module>\n    semester1 = db.period.insert(name = first_period_name)\n  File "/opt/web-apps/web2py/gluon/dal.py", line 9003, in insert\n    ret =  self._db._adapter.insert(self, self._listify(fields))\n  File "/opt/web-apps/web2py/gluon/dal.py", line 1311, in insert\n    raise e\nIntegrityError: (1062, u"Duplicate entry \'First Semester\' for key 2")\n'
p182
s.