(dp1
S'id_mail'
p2
(dp3
S'length'
p4
I512
sS'unique'
p5
I00
sS'sortable'
p6
I3
sS'sql'
p7
S'INT NOT NULL'
p8
sS'notnull'
p9
I01
sS'type'
p10
S'integer'
p11
ssS'id'
p12
(dp13
g4
I512
sg5
I00
sg6
I1
sg7
S'INT AUTO_INCREMENT NOT NULL'
p14
sg9
I00
sg10
g12
ssS'id_auth_user'
p15
(dp16
g4
I512
sg5
I00
sg6
I2
sg7
S'INT NOT NULL'
p17
sg9
I01
sg10
g11
ss.