(dp1
S'exclusive_one_answer'
p2
(dp3
S'length'
p4
I512
sS'unique'
p5
I00
sS'sortable'
p6
I3
sS'sql'
p7
S'CHAR(1) NOT NULL'
p8
sS'notnull'
p9
I01
sS'type'
p10
S'boolean'
p11
ssS'description'
p12
(dp13
g4
I32768
sg5
I00
sg6
I4
sg7
S'LONGTEXT NOT NULL'
p14
sg9
I01
sg10
S'text'
p15
ssS'id'
p16
(dp17
g4
I512
sg5
I00
sg6
I1
sg7
S'INT AUTO_INCREMENT NOT NULL'
p18
sg9
I00
sg10
g16
ssS'name'
p19
(dp20
g4
I255
sg5
I01
sg6
I2
sg7
S'VARCHAR(255) NOT NULL UNIQUE'
p21
sg9
I01
sg10
S'string'
p22
ss.