(dp1
S'pmonth'
p2
(dp3
S'length'
p4
I255
sS'unique'
p5
I00
sS'sortable'
p6
I2
sS'sql'
p7
S'VARCHAR(255)'
p8
sS'notnull'
p9
I00
sS'type'
p10
S'string'
p11
ssS'id'
p12
(dp13
g4
I512
sg5
I00
sg6
I1
sg7
S'INT AUTO_INCREMENT NOT NULL'
p14
sg9
I00
sg10
g12
ssS'period'
p15
(dp16
g4
I512
sg5
I01
sg6
I3
sg7
S'INT, INDEX period__idx (period), FOREIGN KEY (period) REFERENCES period (id) ON DELETE CASCADE'
p17
sg9
I00
sg10
S'reference period'
p18
ss.