(dp1
S'page_name'
p2
(dp3
S'sortable'
p4
I3
sS'sql'
p5
S'VARCHAR(512) NOT NULL'
p6
sS'length'
p7
I512
sS'notnull'
p8
I01
sS'unique'
p9
I00
sS'type'
p10
S'string'
p11
ssS'id'
p12
(dp13
g4
I1
sg5
S'INT AUTO_INCREMENT NOT NULL'
p14
sg7
I512
sg8
I00
sg9
I00
sg10
S'id'
p15
ssS'user_id'
p16
(dp17
S'length'
p18
I512
sS'unique'
p19
I00
sS'sortable'
p20
I2
sS'sql'
p21
S'INT NOT NULL'
p22
sS'notnull'
p23
I01
sS'type'
p24
S'integer'
p25
ss.